target datalayout = "e-m:e-p270:32:32-p271:32:32-p272:64:64-i64:64-i128:128-f80:128-n8:16:32:64-S128"
target triple = "x86_64-pc-linux-gnu"

%struct.stringbuf_s = type { ptr, i64, i64, ptr }
%struct.alloc_s = type { ptr, ptr, ptr }
%struct.editor_s = type { ptr, ptr, ptr, ptr, i64, i64, i64, i64, i8, i8, i64, ptr, ptr, ptr, ptr, ptr, ptr }
%struct.editstate_s = type { ptr, ptr, i64 }

@.str.3 = private unnamed_addr constant [1 x i8] zeroinitializer, align 1

; Function Attrs: inlinehint nounwind uwtable
define internal i64 @to_ssize_t(i64 noundef %0) #4 {
  %2 = alloca i64, align 8
  store i64 %0, ptr %2, align 8, !tbaa !9
  %3 = load i64, ptr %2, align 8, !tbaa !9
  %4 = icmp ule i64 %3, 9223372036854775807
  br i1 %4, label %5, label %7

5:                                                ; preds = %1
  %6 = load i64, ptr %2, align 8, !tbaa !9
  br label %8

7:                                                ; preds = %1
  br label %8

8:                                                ; preds = %7, %5
  %9 = phi i64 [ %6, %5 ], [ 0, %7 ]
  ret i64 %9
}

; Function Attrs: nounwind uwtable
define internal void @ic_memcpy(ptr noundef %0, ptr noundef %1, i64 noundef %2) #0 {
  %4 = alloca ptr, align 8
  %5 = alloca ptr, align 8
  %6 = alloca i64, align 8
  store ptr %0, ptr %4, align 8, !tbaa !51
  store ptr %1, ptr %5, align 8, !tbaa !51
  store i64 %2, ptr %6, align 8, !tbaa !9
  %7 = load ptr, ptr %4, align 8, !tbaa !51
  %8 = icmp eq ptr %7, null
  br i1 %8, label %15, label %9

9:                                                ; preds = %3
  %10 = load ptr, ptr %5, align 8, !tbaa !51
  %11 = icmp eq ptr %10, null
  br i1 %11, label %15, label %12

12:                                               ; preds = %9
  %13 = load i64, ptr %6, align 8, !tbaa !9
  %14 = icmp sle i64 %13, 0
  br i1 %14, label %15, label %16

15:                                               ; preds = %12, %9, %3
  br label %21

16:                                               ; preds = %12
  %17 = load ptr, ptr %4, align 8, !tbaa !51
  %18 = load ptr, ptr %5, align 8, !tbaa !51
  %19 = load i64, ptr %6, align 8, !tbaa !9
  %20 = call i64 @to_size_t(i64 noundef %19)
  call void @llvm.memcpy.p0.p0.i64(ptr align 1 %17, ptr align 1 %18, i64 %20, i1 false)
  br label %21

21:                                               ; preds = %16, %15
  ret void
}

; Function Attrs: nounwind uwtable
define internal i64 @ic_strlen(ptr noundef %0) #0 {
  %2 = alloca i64, align 8
  %3 = alloca ptr, align 8
  store ptr %0, ptr %3, align 8, !tbaa !11
  %4 = load ptr, ptr %3, align 8, !tbaa !11
  %5 = icmp eq ptr %4, null
  br i1 %5, label %6, label %7

6:                                                ; preds = %1
  store i64 0, ptr %2, align 8
  br label %11

7:                                                ; preds = %1
  %8 = load ptr, ptr %3, align 8, !tbaa !11
  %9 = call i64 @strlen(ptr noundef %8) #14
  %10 = call i64 @to_ssize_t(i64 noundef %9)
  store i64 %10, ptr %2, align 8
  br label %11

11:                                               ; preds = %7, %6
  %12 = load i64, ptr %2, align 8
  ret i64 %12
}

; Function Attrs: inlinehint nounwind uwtable
define internal i64 @to_size_t(i64 noundef %0) #4 {
  %2 = alloca i64, align 8
  store i64 %0, ptr %2, align 8, !tbaa !9
  %3 = load i64, ptr %2, align 8, !tbaa !9
  %4 = icmp sge i64 %3, 0
  br i1 %4, label %5, label %7

5:                                                ; preds = %1
  %6 = load i64, ptr %2, align 8, !tbaa !9
  br label %8

7:                                                ; preds = %1
  br label %8

8:                                                ; preds = %7, %5
  %9 = phi i64 [ %6, %5 ], [ 0, %7 ]
  ret i64 %9
}

; Function Attrs: nounwind uwtable
define internal ptr @mem_malloc(ptr noundef %0, i64 noundef %1) #0 {
  %3 = alloca ptr, align 8
  %4 = alloca i64, align 8
  store ptr %0, ptr %3, align 8, !tbaa !34
  store i64 %1, ptr %4, align 8, !tbaa !9
  %5 = load ptr, ptr %3, align 8, !tbaa !34
  %6 = getelementptr inbounds nuw %struct.alloc_s, ptr %5, i32 0, i32 0
  %7 = load ptr, ptr %6, align 8, !tbaa !176
  %8 = load i64, ptr %4, align 8, !tbaa !9
  %9 = call i64 @to_size_t(i64 noundef %8)
  %10 = call ptr %7(i64 noundef %9)
  ret ptr %10
}

; Function Attrs: nounwind uwtable
define internal ptr @mem_strdup(ptr noundef %0, ptr noundef %1) #0 {
  %3 = alloca ptr, align 8
  %4 = alloca ptr, align 8
  %5 = alloca ptr, align 8
  %6 = alloca i64, align 8
  %7 = alloca ptr, align 8
  %8 = alloca i32, align 4
  store ptr %0, ptr %4, align 8, !tbaa !34
  store ptr %1, ptr %5, align 8, !tbaa !11
  %9 = load ptr, ptr %5, align 8, !tbaa !11
  %10 = icmp eq ptr %9, null
  br i1 %10, label %11, label %12

11:                                               ; preds = %2
  store ptr null, ptr %3, align 8
  br label %30

12:                                               ; preds = %2
  call void @llvm.lifetime.start.p0(i64 8, ptr %6) #13
  %13 = load ptr, ptr %5, align 8, !tbaa !11
  %14 = call i64 @ic_strlen(ptr noundef %13)
  store i64 %14, ptr %6, align 8, !tbaa !9
  call void @llvm.lifetime.start.p0(i64 8, ptr %7) #13
  %15 = load ptr, ptr %4, align 8, !tbaa !34
  %16 = load i64, ptr %6, align 8, !tbaa !9
  %17 = add nsw i64 %16, 1
  %18 = mul nsw i64 %17, 1
  %19 = call ptr @mem_malloc(ptr noundef %15, i64 noundef %18)
  store ptr %19, ptr %7, align 8, !tbaa !11
  %20 = load ptr, ptr %7, align 8, !tbaa !11
  %21 = icmp eq ptr %20, null
  br i1 %21, label %22, label %23

22:                                               ; preds = %12
  store ptr null, ptr %3, align 8
  store i32 1, ptr %8, align 4
  br label %29

23:                                               ; preds = %12
  %24 = load ptr, ptr %7, align 8, !tbaa !11
  %25 = load ptr, ptr %5, align 8, !tbaa !11
  %26 = load i64, ptr %6, align 8, !tbaa !9
  %27 = add nsw i64 %26, 1
  call void @ic_memcpy(ptr noundef %24, ptr noundef %25, i64 noundef %27)
  %28 = load ptr, ptr %7, align 8, !tbaa !11
  store ptr %28, ptr %3, align 8
  store i32 1, ptr %8, align 4
  br label %29

29:                                               ; preds = %23, %22
  call void @llvm.lifetime.end.p0(i64 8, ptr %7) #13
  call void @llvm.lifetime.end.p0(i64 8, ptr %6) #13
  br label %30

30:                                               ; preds = %29, %11
  %31 = load ptr, ptr %3, align 8
  ret ptr %31
}

; Function Attrs: nounwind uwtable
define internal ptr @mem_zalloc(ptr noundef %0, i64 noundef %1) #0 {
  %3 = alloca ptr, align 8
  %4 = alloca i64, align 8
  %5 = alloca ptr, align 8
  store ptr %0, ptr %3, align 8, !tbaa !34
  store i64 %1, ptr %4, align 8, !tbaa !9
  call void @llvm.lifetime.start.p0(i64 8, ptr %5) #13
  %6 = load ptr, ptr %3, align 8, !tbaa !34
  %7 = load i64, ptr %4, align 8, !tbaa !9
  %8 = call ptr @mem_malloc(ptr noundef %6, i64 noundef %7)
  store ptr %8, ptr %5, align 8, !tbaa !51
  %9 = load ptr, ptr %5, align 8, !tbaa !51
  %10 = icmp ne ptr %9, null
  br i1 %10, label %11, label %15

11:                                               ; preds = %2
  %12 = load ptr, ptr %5, align 8, !tbaa !51
  %13 = load i64, ptr %4, align 8, !tbaa !9
  %14 = call i64 @to_size_t(i64 noundef %13)
  call void @llvm.memset.p0.i64(ptr align 1 %12, i8 0, i64 %14, i1 false)
  br label %15

15:                                               ; preds = %11, %2
  %16 = load ptr, ptr %5, align 8, !tbaa !51
  call void @llvm.lifetime.end.p0(i64 8, ptr %5) #13
  ret ptr %16
}

; Function Attrs: nounwind uwtable
define internal ptr @sbuf_string_at(ptr noundef %0, i64 noundef %1) #0 {
  %3 = alloca ptr, align 8
  %4 = alloca ptr, align 8
  %5 = alloca i64, align 8
  store ptr %0, ptr %4, align 8, !tbaa !31
  store i64 %1, ptr %5, align 8, !tbaa !9
  %6 = load i64, ptr %5, align 8, !tbaa !9
  %7 = icmp slt i64 %6, 0
  br i1 %7, label %14, label %8

8:                                                ; preds = %2
  %9 = load ptr, ptr %4, align 8, !tbaa !31
  %10 = getelementptr inbounds nuw %struct.stringbuf_s, ptr %9, i32 0, i32 2
  %11 = load i64, ptr %10, align 8, !tbaa !42
  %12 = load i64, ptr %5, align 8, !tbaa !9
  %13 = icmp slt i64 %11, %12
  br i1 %13, label %14, label %15

14:                                               ; preds = %8, %2
  store ptr null, ptr %3, align 8
  br label %27

15:                                               ; preds = %8
  %16 = load ptr, ptr %4, align 8, !tbaa !31
  %17 = getelementptr inbounds nuw %struct.stringbuf_s, ptr %16, i32 0, i32 0
  %18 = load ptr, ptr %17, align 8, !tbaa !223
  %19 = icmp eq ptr %18, null
  br i1 %19, label %20, label %21

20:                                               ; preds = %15
  store ptr @.str.3, ptr %3, align 8
  br label %27

21:                                               ; preds = %15
  %22 = load ptr, ptr %4, align 8, !tbaa !31
  %23 = getelementptr inbounds nuw %struct.stringbuf_s, ptr %22, i32 0, i32 0
  %24 = load ptr, ptr %23, align 8, !tbaa !223
  %25 = load i64, ptr %5, align 8, !tbaa !9
  %26 = getelementptr inbounds i8, ptr %24, i64 %25
  store ptr %26, ptr %3, align 8
  br label %27

27:                                               ; preds = %21, %20, %14
  %28 = load ptr, ptr %3, align 8
  ret ptr %28
}

; Function Attrs: nounwind uwtable
define internal void @editstate_capture(ptr noundef %0, ptr noundef %1, ptr noundef %2, i64 noundef %3) #0 {
  %5 = alloca ptr, align 8
  %6 = alloca ptr, align 8
  %7 = alloca ptr, align 8
  %8 = alloca i64, align 8
  %9 = alloca ptr, align 8
  %10 = alloca i32, align 4
  store ptr %0, ptr %5, align 8, !tbaa !34
  store ptr %1, ptr %6, align 8, !tbaa !290
  store ptr %2, ptr %7, align 8, !tbaa !11
  store i64 %3, ptr %8, align 8, !tbaa !9
  %11 = load ptr, ptr %7, align 8, !tbaa !11
  %12 = icmp eq ptr %11, null
  br i1 %12, label %13, label %14

13:                                               ; preds = %4
  store ptr @.str.3, ptr %7, align 8, !tbaa !11
  br label %14

14:                                               ; preds = %13, %4
  call void @llvm.lifetime.start.p0(i64 8, ptr %9) #13
  %15 = load ptr, ptr %5, align 8, !tbaa !34
  %16 = call ptr @mem_zalloc(ptr noundef %15, i64 noundef 24)
  store ptr %16, ptr %9, align 8, !tbaa !292
  %17 = load ptr, ptr %9, align 8, !tbaa !292
  %18 = icmp eq ptr %17, null
  br i1 %18, label %19, label %20

19:                                               ; preds = %14
  store i32 1, ptr %10, align 4
  br label %43

20:                                               ; preds = %14
  %21 = load ptr, ptr %5, align 8, !tbaa !34
  %22 = load ptr, ptr %7, align 8, !tbaa !11
  %23 = call ptr @mem_strdup(ptr noundef %21, ptr noundef %22)
  %24 = load ptr, ptr %9, align 8, !tbaa !292
  %25 = getelementptr inbounds nuw %struct.editstate_s, ptr %24, i32 0, i32 1
  store ptr %23, ptr %25, align 8, !tbaa !308
  %26 = load i64, ptr %8, align 8, !tbaa !9
  %27 = load ptr, ptr %9, align 8, !tbaa !292
  %28 = getelementptr inbounds nuw %struct.editstate_s, ptr %27, i32 0, i32 2
  store i64 %26, ptr %28, align 8, !tbaa !393
  %29 = load ptr, ptr %9, align 8, !tbaa !292
  %30 = getelementptr inbounds nuw %struct.editstate_s, ptr %29, i32 0, i32 1
  %31 = load ptr, ptr %30, align 8, !tbaa !308
  %32 = icmp eq ptr %31, null
  br i1 %32, label %33, label %36

33:                                               ; preds = %20
  %34 = load ptr, ptr %5, align 8, !tbaa !34
  %35 = load ptr, ptr %9, align 8, !tbaa !292
  call void @mem_free(ptr noundef %34, ptr noundef %35)
  store i32 1, ptr %10, align 4
  br label %43

36:                                               ; preds = %20
  %37 = load ptr, ptr %6, align 8, !tbaa !290
  %38 = load ptr, ptr %37, align 8, !tbaa !292
  %39 = load ptr, ptr %9, align 8, !tbaa !292
  %40 = getelementptr inbounds nuw %struct.editstate_s, ptr %39, i32 0, i32 0
  store ptr %38, ptr %40, align 8, !tbaa !306
  %41 = load ptr, ptr %9, align 8, !tbaa !292
  %42 = load ptr, ptr %6, align 8, !tbaa !290
  store ptr %41, ptr %42, align 8, !tbaa !292
  store i32 0, ptr %10, align 4
  br label %43

43:                                               ; preds = %36, %33, %19
  call void @llvm.lifetime.end.p0(i64 8, ptr %9) #13
  %44 = load i32, ptr %10, align 4
  switch i32 %44, label %46 [
    i32 0, label %45
    i32 1, label %45
  ]

45:                                               ; preds = %43, %43
  ret void

46:                                               ; preds = %43
  unreachable
}

; Function Attrs: nounwind uwtable
define internal ptr @sbuf_string(ptr noundef %0) #0 {
  %2 = alloca ptr, align 8
  store ptr %0, ptr %2, align 8, !tbaa !31
  %3 = load ptr, ptr %2, align 8, !tbaa !31
  %4 = call ptr @sbuf_string_at(ptr noundef %3, i64 noundef 0)
  ret ptr %4
}

; Function Attrs: nounwind uwtable
define internal void @mem_free(ptr noundef %0, ptr noundef %1) #0 {
  %3 = alloca ptr, align 8
  %4 = alloca ptr, align 8
  store ptr %0, ptr %3, align 8, !tbaa !34
  store ptr %1, ptr %4, align 8, !tbaa !51
  %5 = load ptr, ptr %3, align 8, !tbaa !34
  %6 = getelementptr inbounds nuw %struct.alloc_s, ptr %5, i32 0, i32 2
  %7 = load ptr, ptr %6, align 8, !tbaa !87
  %8 = load ptr, ptr %4, align 8, !tbaa !51
  call void %7(ptr noundef %8)
  ret void
}

; Function Attrs: nounwind uwtable
define internal void @editor_capture(ptr noundef %0, ptr noundef %1) #0 {
  %3 = alloca ptr, align 8
  %4 = alloca ptr, align 8
  store ptr %0, ptr %3, align 8, !tbaa !293
  store ptr %1, ptr %4, align 8, !tbaa !290
  %5 = load ptr, ptr %3, align 8, !tbaa !293
  %6 = getelementptr inbounds nuw %struct.editor_s, ptr %5, i32 0, i32 9
  %7 = load i8, ptr %6, align 1, !tbaa !392, !range !124, !noundef !125
  %8 = trunc i8 %7 to i1
  br i1 %8, label %21, label %9

9:                                                ; preds = %2
  %10 = load ptr, ptr %3, align 8, !tbaa !293
  %11 = getelementptr inbounds nuw %struct.editor_s, ptr %10, i32 0, i32 14
  %12 = load ptr, ptr %11, align 8, !tbaa !272
  %13 = load ptr, ptr %4, align 8, !tbaa !290
  %14 = load ptr, ptr %3, align 8, !tbaa !293
  %15 = getelementptr inbounds nuw %struct.editor_s, ptr %14, i32 0, i32 0
  %16 = load ptr, ptr %15, align 8, !tbaa !275
  %17 = call ptr @sbuf_string(ptr noundef %16)
  %18 = load ptr, ptr %3, align 8, !tbaa !293
  %19 = getelementptr inbounds nuw %struct.editor_s, ptr %18, i32 0, i32 4
  %20 = load i64, ptr %19, align 8, !tbaa !280
  call void @editstate_capture(ptr noundef %12, ptr noundef %13, ptr noundef %17, i64 noundef %20)
  br label %21

21:                                               ; preds = %9, %2
  ret void
}

; Function Attrs: nounwind uwtable
define internal void @editstate_done(ptr noundef %0, ptr noundef %1) #0 {
  %3 = alloca ptr, align 8
  %4 = alloca ptr, align 8
  %5 = alloca ptr, align 8
  store ptr %0, ptr %3, align 8, !tbaa !34
  store ptr %1, ptr %4, align 8, !tbaa !290
  br label %6

6:                                                ; preds = %10, %2
  %7 = load ptr, ptr %4, align 8, !tbaa !290
  %8 = load ptr, ptr %7, align 8, !tbaa !292
  %9 = icmp ne ptr %8, null
  br i1 %9, label %10, label %25

10:                                               ; preds = %6
  call void @llvm.lifetime.start.p0(i64 8, ptr %5) #13
  %11 = load ptr, ptr %4, align 8, !tbaa !290
  %12 = load ptr, ptr %11, align 8, !tbaa !292
  %13 = getelementptr inbounds nuw %struct.editstate_s, ptr %12, i32 0, i32 0
  %14 = load ptr, ptr %13, align 8, !tbaa !306
  store ptr %14, ptr %5, align 8, !tbaa !292
  %15 = load ptr, ptr %3, align 8, !tbaa !34
  %16 = load ptr, ptr %4, align 8, !tbaa !290
  %17 = load ptr, ptr %16, align 8, !tbaa !292
  %18 = getelementptr inbounds nuw %struct.editstate_s, ptr %17, i32 0, i32 1
  %19 = load ptr, ptr %18, align 8, !tbaa !308
  call void @mem_free(ptr noundef %15, ptr noundef %19)
  %20 = load ptr, ptr %3, align 8, !tbaa !34
  %21 = load ptr, ptr %4, align 8, !tbaa !290
  %22 = load ptr, ptr %21, align 8, !tbaa !292
  call void @mem_free(ptr noundef %20, ptr noundef %22)
  %23 = load ptr, ptr %5, align 8, !tbaa !292
  %24 = load ptr, ptr %4, align 8, !tbaa !290
  store ptr %23, ptr %24, align 8, !tbaa !292
  call void @llvm.lifetime.end.p0(i64 8, ptr %5) #13
  br label %6, !llvm.loop !309

25:                                               ; preds = %6
  %26 = load ptr, ptr %4, align 8, !tbaa !290
  store ptr null, ptr %26, align 8, !tbaa !292
  ret void
}

; Function Attrs: nounwind uwtable
define internal void @editor_undo_capture(ptr noundef %0) #0 {
  %2 = alloca ptr, align 8
  store ptr %0, ptr %2, align 8, !tbaa !293
  %3 = load ptr, ptr %2, align 8, !tbaa !293
  %4 = load ptr, ptr %2, align 8, !tbaa !293
  %5 = getelementptr inbounds nuw %struct.editor_s, ptr %4, i32 0, i32 11
  call void @editor_capture(ptr noundef %3, ptr noundef %5)
  ret void
}

; Function Attrs: nounwind uwtable
define internal void @editor_start_modify(ptr noundef %0) #0 {
  %2 = alloca ptr, align 8
  store ptr %0, ptr %2, align 8, !tbaa !293
  %3 = load ptr, ptr %2, align 8, !tbaa !293
  call void @editor_undo_capture(ptr noundef %3)
  %4 = load ptr, ptr %2, align 8, !tbaa !293
  %5 = getelementptr inbounds nuw %struct.editor_s, ptr %4, i32 0, i32 14
  %6 = load ptr, ptr %5, align 8, !tbaa !272
  %7 = load ptr, ptr %2, align 8, !tbaa !293
  %8 = getelementptr inbounds nuw %struct.editor_s, ptr %7, i32 0, i32 12
  call void @editstate_done(ptr noundef %6, ptr noundef %8)
  %9 = load ptr, ptr %2, align 8, !tbaa !293
  %10 = getelementptr inbounds nuw %struct.editor_s, ptr %9, i32 0, i32 8
  store i8 1, ptr %10, align 8, !tbaa !283
  ret void
}