; Function Attrs: nounwind uwtable
define internal fastcc void @editor_start_modify(ptr noundef nonnull captures(none) %0) unnamed_addr #0 {
  %2 = getelementptr inbounds nuw i8, ptr %0, i64 80
  %3 = getelementptr inbounds nuw i8, ptr %0, i64 65
  %4 = load i8, ptr %3, align 1, !tbaa !270, !range !117, !noundef !118
  %5 = trunc nuw i8 %4 to i1
  br i1 %5, label %editor_undo_capture.exit, label %6

6:                                                ; preds = %1
  %7 = getelementptr inbounds nuw i8, ptr %0, i64 104
  %8 = load ptr, ptr %7, align 8, !tbaa !252
  %9 = load ptr, ptr %0, align 8, !tbaa !255
  %10 = getelementptr inbounds nuw i8, ptr %9, i64 16
  %11 = load i64, ptr %10, align 8, !tbaa !40
  %12 = icmp slt i64 %11, 0
  br i1 %12, label %sbuf_string.exit.i.i, label %13

13:                                               ; preds = %6
  %14 = load ptr, ptr %9, align 8, !tbaa !43
  %15 = icmp eq ptr %14, null
  %spec.select.i.i.i.i = select i1 %15, ptr @.str.3, ptr %14
  br label %sbuf_string.exit.i.i

sbuf_string.exit.i.i:                             ; preds = %13, %6
  %.0.i.i.i.i = phi ptr [ null, %6 ], [ %spec.select.i.i.i.i, %13 ]
  %16 = getelementptr inbounds nuw i8, ptr %0, i64 32
  %17 = load i64, ptr %16, align 8, !tbaa !260
  %.val.i.i.i = load ptr, ptr %8, align 8, !tbaa !30
  %18 = tail call ptr %.val.i.i.i(i64 noundef 24) #32
  %.not.i.i.i.i = icmp eq ptr %18, null
  br i1 %.not.i.i.i.i, label %editor_undo_capture.exit, label %19

19:                                               ; preds = %sbuf_string.exit.i.i
  tail call void @llvm.memset.p0.i64(ptr noundef nonnull align 1 dereferenceable(24) %18, i8 0, i64 24, i1 false)
  %20 = icmp eq ptr %.0.i.i.i.i, null
  %spec.store.select.i.i.i = select i1 %20, ptr @.str.3, ptr %.0.i.i.i.i
  %21 = tail call i64 @strlen(ptr noundef nonnull readonly dereferenceable(1) %spec.store.select.i.i.i) #33
  %22 = tail call noundef range(i64 0, -9223372036854775808) i64 @llvm.smax.i64(i64 %21, i64 0)
  %23 = add nuw nsw i64 %22, 1
  %.val.i.i.i.i = load ptr, ptr %8, align 8, !tbaa !30
  %24 = tail call ptr %.val.i.i.i.i(i64 noundef %23) #32
  %25 = icmp eq ptr %24, null
  br i1 %25, label %26, label %30

26:                                               ; preds = %19
  %27 = getelementptr inbounds nuw i8, ptr %18, i64 8
  store ptr null, ptr %27, align 8, !tbaa !271
  %28 = getelementptr inbounds nuw i8, ptr %18, i64 16
  store i64 %17, ptr %28, align 8, !tbaa !273
  %29 = getelementptr i8, ptr %8, i64 16
  %.val14.i.i.i = load ptr, ptr %29, align 8, !tbaa !44
  tail call void %.val14.i.i.i(ptr noundef nonnull %18) #32
  br label %editor_undo_capture.exit

30:                                               ; preds = %19
  tail call void @llvm.memcpy.p0.p0.i64(ptr noundef nonnull align 1 dereferenceable(1) %24, ptr noundef nonnull readonly align 1 dereferenceable(1) %spec.store.select.i.i.i, i64 %23, i1 false)
  %31 = getelementptr inbounds nuw i8, ptr %18, i64 8
  store ptr %24, ptr %31, align 8, !tbaa !271
  %32 = getelementptr inbounds nuw i8, ptr %18, i64 16
  store i64 %17, ptr %32, align 8, !tbaa !273
  %33 = load ptr, ptr %2, align 8, !tbaa !274
  store ptr %33, ptr %18, align 8, !tbaa !275
  store ptr %18, ptr %2, align 8, !tbaa !274
  br label %editor_undo_capture.exit

editor_undo_capture.exit:                         ; preds = %1, %sbuf_string.exit.i.i, %26, %30
  %34 = getelementptr inbounds nuw i8, ptr %0, i64 88
  %.pr.i = load ptr, ptr %34, align 8, !tbaa !274
  %.not10.i = icmp eq ptr %.pr.i, null
  br i1 %.not10.i, label %editstate_done.exit, label %.lr.ph.i

.lr.ph.i:                                         ; preds = %editor_undo_capture.exit
  %35 = getelementptr inbounds nuw i8, ptr %0, i64 104
  %36 = load ptr, ptr %35, align 8, !tbaa !252
  %37 = getelementptr i8, ptr %36, i64 16
  br label %38

38:                                               ; preds = %38, %.lr.ph.i
  %39 = phi ptr [ %.pr.i, %.lr.ph.i ], [ %40, %38 ]
  %40 = load ptr, ptr %39, align 8, !tbaa !275
  %41 = getelementptr inbounds nuw i8, ptr %39, i64 8
  %42 = load ptr, ptr %41, align 8, !tbaa !271
  %.val9.i = load ptr, ptr %37, align 8, !tbaa !44
  tail call void %.val9.i(ptr noundef %42) #32
  %43 = load ptr, ptr %34, align 8, !tbaa !274
  %.val.i = load ptr, ptr %37, align 8, !tbaa !44
  tail call void %.val.i(ptr noundef %43) #32
  store ptr %40, ptr %34, align 8, !tbaa !274
  %.not.i = icmp eq ptr %40, null
  br i1 %.not.i, label %editstate_done.exit, label %38, !llvm.loop !276

editstate_done.exit:                              ; preds = %38, %editor_undo_capture.exit
  store ptr null, ptr %34, align 8, !tbaa !274
  %44 = getelementptr inbounds nuw i8, ptr %0, i64 64
  store i8 1, ptr %44, align 8, !tbaa !263
  ret void
}